
ArduinoNano_Console.elf:     file format elf32-avr

Sections:
Idx Name          Size      VMA       LMA       File off  Algn
  0 .data         0000005a  00800100  00000ca2  00000d36  2**0
                  CONTENTS, ALLOC, LOAD, DATA
  1 .text         00000ca2  00000000  00000000  00000094  2**1
                  CONTENTS, ALLOC, LOAD, READONLY, CODE
  2 .bss          000001c6  0080015a  0080015a  00000d90  2**0
                  ALLOC
  3 .comment      00000011  00000000  00000000  00000d90  2**0
                  CONTENTS, READONLY

Disassembly of section .text:

00000000 <__vectors>:
   0:	60 c0       	rjmp	.+192    	; 0xc2 <__dtors_end>
   2:	00 00       	nop
   4:	fe c3       	rjmp	.+2044   	; 0x802 <__vector_1>
   6:	00 00       	nop
   8:	29 c4       	rjmp	.+2130   	; 0x85c <__vector_2>
   a:	00 00       	nop
   c:	7f c0       	rjmp	.+254    	; 0x10c <__bad_interrupt>
   e:	00 00       	nop
  10:	7d c0       	rjmp	.+250    	; 0x10c <__bad_interrupt>
  12:	00 00       	nop
  14:	7b c0       	rjmp	.+246    	; 0x10c <__bad_interrupt>
  16:	00 00       	nop
  18:	79 c0       	rjmp	.+242    	; 0x10c <__bad_interrupt>
  1a:	00 00       	nop
  1c:	97 c3       	rjmp	.+1838   	; 0x74c <__vector_7>
  1e:	00 00       	nop
  20:	75 c0       	rjmp	.+234    	; 0x10c <__bad_interrupt>
  22:	00 00       	nop
  24:	73 c0       	rjmp	.+230    	; 0x10c <__bad_interrupt>
  26:	00 00       	nop
  28:	71 c0       	rjmp	.+226    	; 0x10c <__bad_interrupt>
  2a:	00 00       	nop
  2c:	6f c0       	rjmp	.+222    	; 0x10c <__bad_interrupt>
  2e:	00 00       	nop
  30:	6d c0       	rjmp	.+218    	; 0x10c <__bad_interrupt>
  32:	00 00       	nop
  34:	6b c0       	rjmp	.+214    	; 0x10c <__bad_interrupt>
  36:	00 00       	nop
  38:	69 c0       	rjmp	.+210    	; 0x10c <__bad_interrupt>
  3a:	00 00       	nop
  3c:	67 c0       	rjmp	.+206    	; 0x10c <__bad_interrupt>
  3e:	00 00       	nop
  40:	43 c4       	rjmp	.+2182   	; 0x8c8 <__vector_16>
  42:	00 00       	nop
  44:	63 c0       	rjmp	.+198    	; 0x10c <__bad_interrupt>
  46:	00 00       	nop
  48:	f4 c0       	rjmp	.+488    	; 0x232 <__vector_18>
  4a:	00 00       	nop
  4c:	33 c1       	rjmp	.+614    	; 0x2b4 <__vector_19>
  4e:	00 00       	nop
  50:	5d c0       	rjmp	.+186    	; 0x10c <__bad_interrupt>
  52:	00 00       	nop
  54:	5b c0       	rjmp	.+182    	; 0x10c <__bad_interrupt>
  56:	00 00       	nop
  58:	59 c0       	rjmp	.+178    	; 0x10c <__bad_interrupt>
  5a:	00 00       	nop
  5c:	57 c0       	rjmp	.+174    	; 0x10c <__bad_interrupt>
  5e:	00 00       	nop
  60:	55 c0       	rjmp	.+170    	; 0x10c <__bad_interrupt>
  62:	00 00       	nop
  64:	53 c0       	rjmp	.+166    	; 0x10c <__bad_interrupt>
	...

00000068 <__trampolines_end>:
  68:	02 00       	.word	0x0002	; ????

00000069 <digital_pin_to_timer_PGM>:
  69:	00 00 00 07 00 02 01 00 00 03 04 06 00 00 00 00     ................
  79:	00 00 00 00                                         ....

0000007d <digital_pin_to_bit_mask_PGM>:
  7d:	01 02 04 08 10 20 40 80 01 02 04 08 10 20 01 02     ..... @...... ..
  8d:	04 08 10 20                                         ... 

00000091 <digital_pin_to_port_PGM>:
  91:	04 04 04 04 04 04 04 04 02 02 02 02 02 02 03 03     ................
  a1:	03 03 03 03                                         ....

000000a5 <port_to_output_PGM>:
  a5:	00 00 00 00 25 00 28 00 2b 00                       ....%.(.+.

000000af <port_to_mode_PGM>:
  af:	00 00 00 00 24 00 27 00 2a 00 00                    ....$.'.*..

000000ba <__ctors_start>:
  ba:	14 02       	muls	r17, r20
  bc:	a3 02       	muls	r26, r19
  be:	03 06       	cpc	r0, r19

000000c0 <__ctors_end>:
  c0:	06 06       	cpc	r0, r22

000000c2 <__dtors_end>:
  c2:	11 24       	eor	r1, r1
  c4:	1f be       	out	0x3f, r1	; 63
  c6:	cf ef       	ldi	r28, 0xFF	; 255
  c8:	d8 e0       	ldi	r29, 0x08	; 8
  ca:	de bf       	out	0x3e, r29	; 62
  cc:	cd bf       	out	0x3d, r28	; 61

000000ce <__do_copy_data>:
  ce:	11 e0       	ldi	r17, 0x01	; 1
  d0:	a0 e0       	ldi	r26, 0x00	; 0
  d2:	b1 e0       	ldi	r27, 0x01	; 1
  d4:	e2 ea       	ldi	r30, 0xA2	; 162
  d6:	fc e0       	ldi	r31, 0x0C	; 12
  d8:	02 c0       	rjmp	.+4      	; 0xde <__do_copy_data+0x10>
  da:	05 90       	lpm	r0, Z+
  dc:	0d 92       	st	X+, r0
  de:	aa 35       	cpi	r26, 0x5A	; 90
  e0:	b1 07       	cpc	r27, r17
  e2:	d9 f7       	brne	.-10     	; 0xda <__do_copy_data+0xc>

000000e4 <__do_clear_bss>:
  e4:	23 e0       	ldi	r18, 0x03	; 3
  e6:	aa e5       	ldi	r26, 0x5A	; 90
  e8:	b1 e0       	ldi	r27, 0x01	; 1
  ea:	01 c0       	rjmp	.+2      	; 0xee <.do_clear_bss_start>

000000ec <.do_clear_bss_loop>:
  ec:	1d 92       	st	X+, r1

000000ee <.do_clear_bss_start>:
  ee:	a0 32       	cpi	r26, 0x20	; 32
  f0:	b2 07       	cpc	r27, r18
  f2:	e1 f7       	brne	.-8      	; 0xec <.do_clear_bss_loop>

000000f4 <__do_global_ctors>:
  f4:	10 e0       	ldi	r17, 0x00	; 0
  f6:	c0 ec       	ldi	r28, 0xC0	; 192
  f8:	d0 e0       	ldi	r29, 0x00	; 0
  fa:	03 c0       	rjmp	.+6      	; 0x102 <__do_global_ctors+0xe>
  fc:	22 97       	sbiw	r28, 0x02	; 2
  fe:	fe 01       	movw	r30, r28
 100:	ac d5       	rcall	.+2904   	; 0xc5a <__tablejump__>
 102:	ca 3b       	cpi	r28, 0xBA	; 186
 104:	d1 07       	cpc	r29, r17
 106:	d1 f7       	brne	.-12     	; 0xfc <__do_global_ctors+0x8>
 108:	d6 d3       	rcall	.+1964   	; 0x8b6 <main>
 10a:	bf c5       	rjmp	.+2942   	; 0xc8a <__do_global_dtors>

0000010c <__bad_interrupt>:
 10c:	79 cf       	rjmp	.-270    	; 0x0 <__vectors>

0000010e <_ZN14HardwareSerial9availableEv>:
 10e:	fc 01       	movw	r30, r24
 110:	24 85       	ldd	r18, Z+12	; 0x0c
 112:	35 85       	ldd	r19, Z+13	; 0x0d
 114:	f9 01       	movw	r30, r18
 116:	e0 5c       	subi	r30, 0xC0	; 192
 118:	ff 4f       	sbci	r31, 0xFF	; 255
 11a:	80 81       	ld	r24, Z
 11c:	91 81       	ldd	r25, Z+1	; 0x01
 11e:	32 96       	adiw	r30, 0x02	; 2
 120:	20 81       	ld	r18, Z
 122:	31 81       	ldd	r19, Z+1	; 0x01
 124:	82 1b       	sub	r24, r18
 126:	93 0b       	sbc	r25, r19
 128:	8f 73       	andi	r24, 0x3F	; 63
 12a:	99 27       	eor	r25, r25
 12c:	08 95       	ret

0000012e <_ZN14HardwareSerial4peekEv>:
 12e:	fc 01       	movw	r30, r24
 130:	84 85       	ldd	r24, Z+12	; 0x0c
 132:	95 85       	ldd	r25, Z+13	; 0x0d
 134:	fc 01       	movw	r30, r24
 136:	e0 5c       	subi	r30, 0xC0	; 192
 138:	ff 4f       	sbci	r31, 0xFF	; 255
 13a:	40 81       	ld	r20, Z
 13c:	51 81       	ldd	r21, Z+1	; 0x01
 13e:	32 96       	adiw	r30, 0x02	; 2
 140:	20 81       	ld	r18, Z
 142:	31 81       	ldd	r19, Z+1	; 0x01
 144:	42 17       	cp	r20, r18
 146:	53 07       	cpc	r21, r19
 148:	41 f0       	breq	.+16     	; 0x15a <_ZN14HardwareSerial4peekEv+0x2c>
 14a:	01 90       	ld	r0, Z+
 14c:	f0 81       	ld	r31, Z
 14e:	e0 2d       	mov	r30, r0
 150:	e8 0f       	add	r30, r24
 152:	f9 1f       	adc	r31, r25
 154:	80 81       	ld	r24, Z
 156:	90 e0       	ldi	r25, 0x00	; 0
 158:	08 95       	ret
 15a:	8f ef       	ldi	r24, 0xFF	; 255
 15c:	9f ef       	ldi	r25, 0xFF	; 255
 15e:	08 95       	ret

00000160 <_ZN14HardwareSerial4readEv>:
 160:	fc 01       	movw	r30, r24
 162:	84 85       	ldd	r24, Z+12	; 0x0c
 164:	95 85       	ldd	r25, Z+13	; 0x0d
 166:	fc 01       	movw	r30, r24
 168:	e0 5c       	subi	r30, 0xC0	; 192
 16a:	ff 4f       	sbci	r31, 0xFF	; 255
 16c:	40 81       	ld	r20, Z
 16e:	51 81       	ldd	r21, Z+1	; 0x01
 170:	32 96       	adiw	r30, 0x02	; 2
 172:	20 81       	ld	r18, Z
 174:	31 81       	ldd	r19, Z+1	; 0x01
 176:	42 17       	cp	r20, r18
 178:	53 07       	cpc	r21, r19
 17a:	79 f0       	breq	.+30     	; 0x19a <_ZN14HardwareSerial4readEv+0x3a>
 17c:	a0 81       	ld	r26, Z
 17e:	b1 81       	ldd	r27, Z+1	; 0x01
 180:	a8 0f       	add	r26, r24
 182:	b9 1f       	adc	r27, r25
 184:	8c 91       	ld	r24, X
 186:	20 81       	ld	r18, Z
 188:	31 81       	ldd	r19, Z+1	; 0x01
 18a:	2f 5f       	subi	r18, 0xFF	; 255
 18c:	3f 4f       	sbci	r19, 0xFF	; 255
 18e:	2f 73       	andi	r18, 0x3F	; 63
 190:	33 27       	eor	r19, r19
 192:	31 83       	std	Z+1, r19	; 0x01
 194:	20 83       	st	Z, r18
 196:	90 e0       	ldi	r25, 0x00	; 0
 198:	08 95       	ret
 19a:	8f ef       	ldi	r24, 0xFF	; 255
 19c:	9f ef       	ldi	r25, 0xFF	; 255
 19e:	08 95       	ret

000001a0 <_ZN14HardwareSerial5flushEv>:
 1a0:	fc 01       	movw	r30, r24
 1a2:	81 a1       	ldd	r24, Z+33	; 0x21
 1a4:	88 23       	and	r24, r24
 1a6:	29 f0       	breq	.+10     	; 0x1b2 <_ZN14HardwareSerial5flushEv+0x12>
 1a8:	a4 89       	ldd	r26, Z+20	; 0x14
 1aa:	b5 89       	ldd	r27, Z+21	; 0x15
 1ac:	8c 91       	ld	r24, X
 1ae:	86 ff       	sbrs	r24, 6
 1b0:	fb cf       	rjmp	.-10     	; 0x1a8 <_ZN14HardwareSerial5flushEv+0x8>
 1b2:	11 a2       	std	Z+33, r1	; 0x21
 1b4:	08 95       	ret

000001b6 <_ZN14HardwareSerial5writeEh>:
 1b6:	cf 93       	push	r28
 1b8:	df 93       	push	r29
 1ba:	fc 01       	movw	r30, r24
 1bc:	26 85       	ldd	r18, Z+14	; 0x0e
 1be:	37 85       	ldd	r19, Z+15	; 0x0f
 1c0:	d9 01       	movw	r26, r18
 1c2:	a0 5c       	subi	r26, 0xC0	; 192
 1c4:	bf 4f       	sbci	r27, 0xFF	; 255
 1c6:	8d 91       	ld	r24, X+
 1c8:	9c 91       	ld	r25, X
 1ca:	11 97       	sbiw	r26, 0x01	; 1
 1cc:	01 96       	adiw	r24, 0x01	; 1
 1ce:	8f 73       	andi	r24, 0x3F	; 63
 1d0:	99 27       	eor	r25, r25
 1d2:	e9 01       	movw	r28, r18
 1d4:	ce 5b       	subi	r28, 0xBE	; 190
 1d6:	df 4f       	sbci	r29, 0xFF	; 255
 1d8:	48 81       	ld	r20, Y
 1da:	59 81       	ldd	r21, Y+1	; 0x01
 1dc:	84 17       	cp	r24, r20
 1de:	95 07       	cpc	r25, r21
 1e0:	d9 f3       	breq	.-10     	; 0x1d8 <_ZN14HardwareSerial5writeEh+0x22>
 1e2:	0d 90       	ld	r0, X+
 1e4:	bc 91       	ld	r27, X
 1e6:	a0 2d       	mov	r26, r0
 1e8:	a2 0f       	add	r26, r18
 1ea:	b3 1f       	adc	r27, r19
 1ec:	6c 93       	st	X, r22
 1ee:	a6 85       	ldd	r26, Z+14	; 0x0e
 1f0:	b7 85       	ldd	r27, Z+15	; 0x0f
 1f2:	a0 5c       	subi	r26, 0xC0	; 192
 1f4:	bf 4f       	sbci	r27, 0xFF	; 255
 1f6:	11 96       	adiw	r26, 0x01	; 1
 1f8:	9c 93       	st	X, r25
 1fa:	8e 93       	st	-X, r24
 1fc:	a6 89       	ldd	r26, Z+22	; 0x16
 1fe:	b7 89       	ldd	r27, Z+23	; 0x17
 200:	2c 91       	ld	r18, X
 202:	81 e0       	ldi	r24, 0x01	; 1
 204:	90 e0       	ldi	r25, 0x00	; 0
 206:	07 8c       	ldd	r0, Z+31	; 0x1f
 208:	02 c0       	rjmp	.+4      	; 0x20e <_ZN14HardwareSerial5writeEh+0x58>
 20a:	88 0f       	add	r24, r24
 20c:	99 1f       	adc	r25, r25
 20e:	0a 94       	dec	r0
 210:	e2 f7       	brpl	.-8      	; 0x20a <_ZN14HardwareSerial5writeEh+0x54>
 212:	28 2b       	or	r18, r24
 214:	2c 93       	st	X, r18
 216:	81 e0       	ldi	r24, 0x01	; 1
 218:	81 a3       	std	Z+33, r24	; 0x21
 21a:	04 88       	ldd	r0, Z+20	; 0x14
 21c:	f5 89       	ldd	r31, Z+21	; 0x15
 21e:	e0 2d       	mov	r30, r0
 220:	80 81       	ld	r24, Z
 222:	80 64       	ori	r24, 0x40	; 64
 224:	80 83       	st	Z, r24
 226:	81 e0       	ldi	r24, 0x01	; 1
 228:	90 e0       	ldi	r25, 0x00	; 0
 22a:	df 91       	pop	r29
 22c:	cf 91       	pop	r28
 22e:	08 95       	ret

00000230 <_Z11serialEventv>:
 230:	08 95       	ret

00000232 <__vector_18>:
 232:	1f 92       	push	r1
 234:	0f 92       	push	r0
 236:	0f b6       	in	r0, 0x3f	; 63
 238:	0f 92       	push	r0
 23a:	11 24       	eor	r1, r1
 23c:	2f 93       	push	r18
 23e:	3f 93       	push	r19
 240:	4f 93       	push	r20
 242:	8f 93       	push	r24
 244:	9f 93       	push	r25
 246:	ef 93       	push	r30
 248:	ff 93       	push	r31
 24a:	80 91 c0 00 	lds	r24, 0x00C0
 24e:	82 fd       	sbrc	r24, 2
 250:	1c c0       	rjmp	.+56     	; 0x28a <__vector_18+0x58>
 252:	40 91 c6 00 	lds	r20, 0x00C6
 256:	80 91 00 02 	lds	r24, 0x0200
 25a:	90 91 01 02 	lds	r25, 0x0201
 25e:	01 96       	adiw	r24, 0x01	; 1
 260:	8f 73       	andi	r24, 0x3F	; 63
 262:	99 27       	eor	r25, r25
 264:	20 91 02 02 	lds	r18, 0x0202
 268:	30 91 03 02 	lds	r19, 0x0203
 26c:	82 17       	cp	r24, r18
 26e:	93 07       	cpc	r25, r19
 270:	71 f0       	breq	.+28     	; 0x28e <__vector_18+0x5c>
 272:	e0 91 00 02 	lds	r30, 0x0200
 276:	f0 91 01 02 	lds	r31, 0x0201
 27a:	e0 54       	subi	r30, 0x40	; 64
 27c:	fe 4f       	sbci	r31, 0xFE	; 254
 27e:	40 83       	st	Z, r20
 280:	90 93 01 02 	sts	0x0201, r25
 284:	80 93 00 02 	sts	0x0200, r24
 288:	02 c0       	rjmp	.+4      	; 0x28e <__vector_18+0x5c>
 28a:	80 91 c6 00 	lds	r24, 0x00C6
 28e:	ff 91       	pop	r31
 290:	ef 91       	pop	r30
 292:	9f 91       	pop	r25
 294:	8f 91       	pop	r24
 296:	4f 91       	pop	r20
 298:	3f 91       	pop	r19
 29a:	2f 91       	pop	r18
 29c:	0f 90       	pop	r0
 29e:	0f be       	out	0x3f, r0	; 63
 2a0:	0f 90       	pop	r0
 2a2:	1f 90       	pop	r1
 2a4:	18 95       	reti

000002a6 <_Z14serialEventRunv>:
 2a6:	8a e5       	ldi	r24, 0x5A	; 90
 2a8:	91 e0       	ldi	r25, 0x01	; 1
 2aa:	31 df       	rcall	.-414    	; 0x10e <_ZN14HardwareSerial9availableEv>
 2ac:	89 2b       	or	r24, r25
 2ae:	09 f0       	breq	.+2      	; 0x2b2 <_Z14serialEventRunv+0xc>
 2b0:	bf cf       	rjmp	.-130    	; 0x230 <_Z11serialEventv>
 2b2:	08 95       	ret

000002b4 <__vector_19>:
 2b4:	1f 92       	push	r1
 2b6:	0f 92       	push	r0
 2b8:	0f b6       	in	r0, 0x3f	; 63
 2ba:	0f 92       	push	r0
 2bc:	11 24       	eor	r1, r1
 2be:	2f 93       	push	r18
 2c0:	3f 93       	push	r19
 2c2:	8f 93       	push	r24
 2c4:	9f 93       	push	r25
 2c6:	ef 93       	push	r30
 2c8:	ff 93       	push	r31
 2ca:	20 91 bc 01 	lds	r18, 0x01BC
 2ce:	30 91 bd 01 	lds	r19, 0x01BD
 2d2:	80 91 be 01 	lds	r24, 0x01BE
 2d6:	90 91 bf 01 	lds	r25, 0x01BF
 2da:	28 17       	cp	r18, r24
 2dc:	39 07       	cpc	r19, r25
 2de:	31 f4       	brne	.+12     	; 0x2ec <__vector_19+0x38>
 2e0:	80 91 c1 00 	lds	r24, 0x00C1
 2e4:	8f 7d       	andi	r24, 0xDF	; 223
 2e6:	80 93 c1 00 	sts	0x00C1, r24
 2ea:	14 c0       	rjmp	.+40     	; 0x314 <__vector_19+0x60>
 2ec:	e0 91 be 01 	lds	r30, 0x01BE
 2f0:	f0 91 bf 01 	lds	r31, 0x01BF
 2f4:	e4 58       	subi	r30, 0x84	; 132
 2f6:	fe 4f       	sbci	r31, 0xFE	; 254
 2f8:	20 81       	ld	r18, Z
 2fa:	80 91 be 01 	lds	r24, 0x01BE
 2fe:	90 91 bf 01 	lds	r25, 0x01BF
 302:	01 96       	adiw	r24, 0x01	; 1
 304:	8f 73       	andi	r24, 0x3F	; 63
 306:	99 27       	eor	r25, r25
 308:	90 93 bf 01 	sts	0x01BF, r25
 30c:	80 93 be 01 	sts	0x01BE, r24
 310:	20 93 c6 00 	sts	0x00C6, r18
 314:	ff 91       	pop	r31
 316:	ef 91       	pop	r30
 318:	9f 91       	pop	r25
 31a:	8f 91       	pop	r24
 31c:	3f 91       	pop	r19
 31e:	2f 91       	pop	r18
 320:	0f 90       	pop	r0
 322:	0f be       	out	0x3f, r0	; 63
 324:	0f 90       	pop	r0
 326:	1f 90       	pop	r1
 328:	18 95       	reti

0000032a <_ZN14HardwareSerial5beginEm>:
 32a:	cf 92       	push	r12
 32c:	df 92       	push	r13
 32e:	ef 92       	push	r14
 330:	ff 92       	push	r15
 332:	cf 93       	push	r28
 334:	df 93       	push	r29
 336:	ec 01       	movw	r28, r24
 338:	6a 01       	movw	r12, r20
 33a:	7b 01       	movw	r14, r22
 33c:	41 15       	cp	r20, r1
 33e:	81 ee       	ldi	r24, 0xE1	; 225
 340:	58 07       	cpc	r21, r24
 342:	61 05       	cpc	r22, r1
 344:	71 05       	cpc	r23, r1
 346:	f1 f0       	breq	.+60     	; 0x384 <_ZN14HardwareSerial5beginEm+0x5a>
 348:	ec 89       	ldd	r30, Y+20	; 0x14
 34a:	fd 89       	ldd	r31, Y+21	; 0x15
 34c:	81 e0       	ldi	r24, 0x01	; 1
 34e:	90 e0       	ldi	r25, 0x00	; 0
 350:	08 a0       	ldd	r0, Y+32	; 0x20
 352:	02 c0       	rjmp	.+4      	; 0x358 <_ZN14HardwareSerial5beginEm+0x2e>
 354:	88 0f       	add	r24, r24
 356:	99 1f       	adc	r25, r25
 358:	0a 94       	dec	r0
 35a:	e2 f7       	brpl	.-8      	; 0x354 <_ZN14HardwareSerial5beginEm+0x2a>
 35c:	80 83       	st	Z, r24
 35e:	60 e0       	ldi	r22, 0x00	; 0
 360:	79 e0       	ldi	r23, 0x09	; 9
 362:	8d e3       	ldi	r24, 0x3D	; 61
 364:	90 e0       	ldi	r25, 0x00	; 0
 366:	a7 01       	movw	r20, r14
 368:	96 01       	movw	r18, r12
 36a:	53 d4       	rcall	.+2214   	; 0xc12 <__udivmodsi4>
 36c:	21 50       	subi	r18, 0x01	; 1
 36e:	31 09       	sbc	r19, r1
 370:	41 09       	sbc	r20, r1
 372:	51 09       	sbc	r21, r1
 374:	56 95       	lsr	r21
 376:	47 95       	ror	r20
 378:	37 95       	ror	r19
 37a:	27 95       	ror	r18
 37c:	21 15       	cp	r18, r1
 37e:	80 e1       	ldi	r24, 0x10	; 16
 380:	38 07       	cpc	r19, r24
 382:	90 f0       	brcs	.+36     	; 0x3a8 <_ZN14HardwareSerial5beginEm+0x7e>
 384:	ec 89       	ldd	r30, Y+20	; 0x14
 386:	fd 89       	ldd	r31, Y+21	; 0x15
 388:	10 82       	st	Z, r1
 38a:	60 e8       	ldi	r22, 0x80	; 128
 38c:	74 e8       	ldi	r23, 0x84	; 132
 38e:	8e e1       	ldi	r24, 0x1E	; 30
 390:	90 e0       	ldi	r25, 0x00	; 0
 392:	a7 01       	movw	r20, r14
 394:	96 01       	movw	r18, r12
 396:	3d d4       	rcall	.+2170   	; 0xc12 <__udivmodsi4>
 398:	21 50       	subi	r18, 0x01	; 1
 39a:	31 09       	sbc	r19, r1
 39c:	41 09       	sbc	r20, r1
 39e:	51 09       	sbc	r21, r1
 3a0:	56 95       	lsr	r21
 3a2:	47 95       	ror	r20
 3a4:	37 95       	ror	r19
 3a6:	27 95       	ror	r18
 3a8:	e8 89       	ldd	r30, Y+16	; 0x10
 3aa:	f9 89       	ldd	r31, Y+17	; 0x11
 3ac:	30 83       	st	Z, r19
 3ae:	ea 89       	ldd	r30, Y+18	; 0x12
 3b0:	fb 89       	ldd	r31, Y+19	; 0x13
 3b2:	20 83       	st	Z, r18
 3b4:	19 a2       	std	Y+33, r1	; 0x21
 3b6:	ee 89       	ldd	r30, Y+22	; 0x16
 3b8:	ff 89       	ldd	r31, Y+23	; 0x17
 3ba:	40 81       	ld	r20, Z
 3bc:	81 e0       	ldi	r24, 0x01	; 1
 3be:	90 e0       	ldi	r25, 0x00	; 0
 3c0:	9c 01       	movw	r18, r24
 3c2:	0c 8c       	ldd	r0, Y+28	; 0x1c
 3c4:	02 c0       	rjmp	.+4      	; 0x3ca <_ZN14HardwareSerial5beginEm+0xa0>
 3c6:	22 0f       	add	r18, r18
 3c8:	33 1f       	adc	r19, r19
 3ca:	0a 94       	dec	r0
 3cc:	e2 f7       	brpl	.-8      	; 0x3c6 <_ZN14HardwareSerial5beginEm+0x9c>
 3ce:	42 2b       	or	r20, r18
 3d0:	40 83       	st	Z, r20
 3d2:	ee 89       	ldd	r30, Y+22	; 0x16
 3d4:	ff 89       	ldd	r31, Y+23	; 0x17
 3d6:	40 81       	ld	r20, Z
 3d8:	9c 01       	movw	r18, r24
 3da:	0d 8c       	ldd	r0, Y+29	; 0x1d
 3dc:	02 c0       	rjmp	.+4      	; 0x3e2 <_ZN14HardwareSerial5beginEm+0xb8>
 3de:	22 0f       	add	r18, r18
 3e0:	33 1f       	adc	r19, r19
 3e2:	0a 94       	dec	r0
 3e4:	e2 f7       	brpl	.-8      	; 0x3de <_ZN14HardwareSerial5beginEm+0xb4>
 3e6:	42 2b       	or	r20, r18
 3e8:	40 83       	st	Z, r20
 3ea:	ee 89       	ldd	r30, Y+22	; 0x16
 3ec:	ff 89       	ldd	r31, Y+23	; 0x17
 3ee:	40 81       	ld	r20, Z
 3f0:	9c 01       	movw	r18, r24
 3f2:	0e 8c       	ldd	r0, Y+30	; 0x1e
 3f4:	02 c0       	rjmp	.+4      	; 0x3fa <_ZN14HardwareSerial5beginEm+0xd0>
 3f6:	22 0f       	add	r18, r18
 3f8:	33 1f       	adc	r19, r19
 3fa:	0a 94       	dec	r0
 3fc:	e2 f7       	brpl	.-8      	; 0x3f6 <_ZN14HardwareSerial5beginEm+0xcc>
 3fe:	42 2b       	or	r20, r18
 400:	40 83       	st	Z, r20
 402:	ee 89       	ldd	r30, Y+22	; 0x16
 404:	ff 89       	ldd	r31, Y+23	; 0x17
 406:	20 81       	ld	r18, Z
 408:	0f 8c       	ldd	r0, Y+31	; 0x1f
 40a:	02 c0       	rjmp	.+4      	; 0x410 <_ZN14HardwareSerial5beginEm+0xe6>
 40c:	88 0f       	add	r24, r24
 40e:	99 1f       	adc	r25, r25
 410:	0a 94       	dec	r0
 412:	e2 f7       	brpl	.-8      	; 0x40c <_ZN14HardwareSerial5beginEm+0xe2>
 414:	80 95       	com	r24
 416:	82 23       	and	r24, r18
 418:	80 83       	st	Z, r24
 41a:	df 91       	pop	r29
 41c:	cf 91       	pop	r28
 41e:	ff 90       	pop	r15
 420:	ef 90       	pop	r14
 422:	df 90       	pop	r13
 424:	cf 90       	pop	r12
 426:	08 95       	ret

00000428 <_GLOBAL__sub_I_rx_buffer>:
 428:	10 92 5d 01 	sts	0x015D, r1
 42c:	10 92 5c 01 	sts	0x015C, r1
 430:	88 ee       	ldi	r24, 0xE8	; 232
 432:	93 e0       	ldi	r25, 0x03	; 3
 434:	a0 e0       	ldi	r26, 0x00	; 0
 436:	b0 e0       	ldi	r27, 0x00	; 0
 438:	80 93 5e 01 	sts	0x015E, r24
 43c:	90 93 5f 01 	sts	0x015F, r25
 440:	a0 93 60 01 	sts	0x0160, r26
 444:	b0 93 61 01 	sts	0x0161, r27
 448:	8f e0       	ldi	r24, 0x0F	; 15
 44a:	91 e0       	ldi	r25, 0x01	; 1
 44c:	90 93 5b 01 	sts	0x015B, r25
 450:	80 93 5a 01 	sts	0x015A, r24
 454:	80 ec       	ldi	r24, 0xC0	; 192
 456:	91 e0       	ldi	r25, 0x01	; 1
 458:	90 93 67 01 	sts	0x0167, r25
 45c:	80 93 66 01 	sts	0x0166, r24
 460:	8c e7       	ldi	r24, 0x7C	; 124
 462:	91 e0       	ldi	r25, 0x01	; 1
 464:	90 93 69 01 	sts	0x0169, r25
 468:	80 93 68 01 	sts	0x0168, r24
 46c:	85 ec       	ldi	r24, 0xC5	; 197
 46e:	90 e0       	ldi	r25, 0x00	; 0
 470:	90 93 6b 01 	sts	0x016B, r25
 474:	80 93 6a 01 	sts	0x016A, r24
 478:	84 ec       	ldi	r24, 0xC4	; 196
 47a:	90 e0       	ldi	r25, 0x00	; 0
 47c:	90 93 6d 01 	sts	0x016D, r25
 480:	80 93 6c 01 	sts	0x016C, r24
 484:	80 ec       	ldi	r24, 0xC0	; 192
 486:	90 e0       	ldi	r25, 0x00	; 0
 488:	90 93 6f 01 	sts	0x016F, r25
 48c:	80 93 6e 01 	sts	0x016E, r24
 490:	81 ec       	ldi	r24, 0xC1	; 193
 492:	90 e0       	ldi	r25, 0x00	; 0
 494:	90 93 71 01 	sts	0x0171, r25
 498:	80 93 70 01 	sts	0x0170, r24
 49c:	82 ec       	ldi	r24, 0xC2	; 194
 49e:	90 e0       	ldi	r25, 0x00	; 0
 4a0:	90 93 73 01 	sts	0x0173, r25
 4a4:	80 93 72 01 	sts	0x0172, r24
 4a8:	86 ec       	ldi	r24, 0xC6	; 198
 4aa:	90 e0       	ldi	r25, 0x00	; 0
 4ac:	90 93 75 01 	sts	0x0175, r25
 4b0:	80 93 74 01 	sts	0x0174, r24
 4b4:	84 e0       	ldi	r24, 0x04	; 4
 4b6:	80 93 76 01 	sts	0x0176, r24
 4ba:	83 e0       	ldi	r24, 0x03	; 3
 4bc:	80 93 77 01 	sts	0x0177, r24
 4c0:	87 e0       	ldi	r24, 0x07	; 7
 4c2:	80 93 78 01 	sts	0x0178, r24
 4c6:	85 e0       	ldi	r24, 0x05	; 5
 4c8:	80 93 79 01 	sts	0x0179, r24
 4cc:	81 e0       	ldi	r24, 0x01	; 1
 4ce:	80 93 7a 01 	sts	0x017A, r24
 4d2:	10 92 7b 01 	sts	0x017B, r1
 4d6:	08 95       	ret

000004d8 <_ZNK9IPAddress7printToER5Print>:
 4d8:	af 92       	push	r10
 4da:	bf 92       	push	r11
 4dc:	cf 92       	push	r12
 4de:	df 92       	push	r13
 4e0:	ef 92       	push	r14
 4e2:	ff 92       	push	r15
 4e4:	0f 93       	push	r16
 4e6:	1f 93       	push	r17
 4e8:	cf 93       	push	r28
 4ea:	df 93       	push	r29
 4ec:	6c 01       	movw	r12, r24
 4ee:	7b 01       	movw	r14, r22
 4f0:	c0 e0       	ldi	r28, 0x00	; 0
 4f2:	d0 e0       	ldi	r29, 0x00	; 0
 4f4:	00 e0       	ldi	r16, 0x00	; 0
 4f6:	10 e0       	ldi	r17, 0x00	; 0
 4f8:	f6 01       	movw	r30, r12
 4fa:	ec 0f       	add	r30, r28
 4fc:	fd 1f       	adc	r31, r29
 4fe:	4a e0       	ldi	r20, 0x0A	; 10
 500:	50 e0       	ldi	r21, 0x00	; 0
 502:	62 81       	ldd	r22, Z+2	; 0x02
 504:	c7 01       	movw	r24, r14
 506:	e9 d0       	rcall	.+466    	; 0x6da <_ZN5Print5printEhi>
 508:	5c 01       	movw	r10, r24
 50a:	6e e2       	ldi	r22, 0x2E	; 46
 50c:	c7 01       	movw	r24, r14
 50e:	69 d0       	rcall	.+210    	; 0x5e2 <_ZN5Print5printEc>
 510:	8a 0d       	add	r24, r10
 512:	9b 1d       	adc	r25, r11
 514:	08 0f       	add	r16, r24
 516:	19 1f       	adc	r17, r25
 518:	21 96       	adiw	r28, 0x01	; 1
 51a:	c3 30       	cpi	r28, 0x03	; 3
 51c:	d1 05       	cpc	r29, r1
 51e:	61 f7       	brne	.-40     	; 0x4f8 <_ZNK9IPAddress7printToER5Print+0x20>
 520:	4a e0       	ldi	r20, 0x0A	; 10
 522:	50 e0       	ldi	r21, 0x00	; 0
 524:	f6 01       	movw	r30, r12
 526:	65 81       	ldd	r22, Z+5	; 0x05
 528:	c7 01       	movw	r24, r14
 52a:	d7 d0       	rcall	.+430    	; 0x6da <_ZN5Print5printEhi>
 52c:	80 0f       	add	r24, r16
 52e:	91 1f       	adc	r25, r17
 530:	df 91       	pop	r29
 532:	cf 91       	pop	r28
 534:	1f 91       	pop	r17
 536:	0f 91       	pop	r16
 538:	ff 90       	pop	r15
 53a:	ef 90       	pop	r14
 53c:	df 90       	pop	r13
 53e:	cf 90       	pop	r12
 540:	bf 90       	pop	r11
 542:	af 90       	pop	r10
 544:	08 95       	ret

00000546 <_GLOBAL__sub_I__ZN9IPAddressC2Ev>:
 546:	8f e1       	ldi	r24, 0x1F	; 31
 548:	91 e0       	ldi	r25, 0x01	; 1
 54a:	90 93 05 02 	sts	0x0205, r25
 54e:	80 93 04 02 	sts	0x0204, r24
 552:	10 92 06 02 	sts	0x0206, r1
 556:	10 92 07 02 	sts	0x0207, r1
 55a:	10 92 08 02 	sts	0x0208, r1
 55e:	10 92 09 02 	sts	0x0209, r1
 562:	08 95       	ret

00000564 <_ZN5Print5writeEPKhj>:
 564:	cf 92       	push	r12
 566:	df 92       	push	r13
 568:	ef 92       	push	r14
 56a:	ff 92       	push	r15
 56c:	0f 93       	push	r16
 56e:	1f 93       	push	r17
 570:	cf 93       	push	r28
 572:	df 93       	push	r29
 574:	6c 01       	movw	r12, r24
 576:	7a 01       	movw	r14, r20
 578:	eb 01       	movw	r28, r22
 57a:	e6 0e       	add	r14, r22
 57c:	f7 1e       	adc	r15, r23
 57e:	00 e0       	ldi	r16, 0x00	; 0
 580:	10 e0       	ldi	r17, 0x00	; 0
 582:	ce 15       	cp	r28, r14
 584:	df 05       	cpc	r29, r15
 586:	61 f0       	breq	.+24     	; 0x5a0 <_ZN5Print5writeEPKhj+0x3c>
 588:	69 91       	ld	r22, Y+
 58a:	d6 01       	movw	r26, r12
 58c:	ed 91       	ld	r30, X+
 58e:	fc 91       	ld	r31, X
 590:	01 90       	ld	r0, Z+
 592:	f0 81       	ld	r31, Z
 594:	e0 2d       	mov	r30, r0
 596:	c6 01       	movw	r24, r12
 598:	09 95       	icall
 59a:	08 0f       	add	r16, r24
 59c:	19 1f       	adc	r17, r25
 59e:	f1 cf       	rjmp	.-30     	; 0x582 <_ZN5Print5writeEPKhj+0x1e>
 5a0:	c8 01       	movw	r24, r16
 5a2:	df 91       	pop	r29
 5a4:	cf 91       	pop	r28
 5a6:	1f 91       	pop	r17
 5a8:	0f 91       	pop	r16
 5aa:	ff 90       	pop	r15
 5ac:	ef 90       	pop	r14
 5ae:	df 90       	pop	r13
 5b0:	cf 90       	pop	r12
 5b2:	08 95       	ret

000005b4 <_ZN5Print5writeEPKc>:
 5b4:	61 15       	cp	r22, r1
 5b6:	71 05       	cpc	r23, r1
 5b8:	81 f0       	breq	.+32     	; 0x5da <_ZN5Print5writeEPKc+0x26>
 5ba:	db 01       	movw	r26, r22
 5bc:	0d 90       	ld	r0, X+
 5be:	00 20       	and	r0, r0
 5c0:	e9 f7       	brne	.-6      	; 0x5bc <_ZN5Print5writeEPKc+0x8>
 5c2:	ad 01       	movw	r20, r26
 5c4:	41 50       	subi	r20, 0x01	; 1
 5c6:	51 09       	sbc	r21, r1
 5c8:	46 1b       	sub	r20, r22
 5ca:	57 0b       	sbc	r21, r23
 5cc:	dc 01       	movw	r26, r24
 5ce:	ed 91       	ld	r30, X+
 5d0:	fc 91       	ld	r31, X
 5d2:	02 80       	ldd	r0, Z+2	; 0x02
 5d4:	f3 81       	ldd	r31, Z+3	; 0x03
 5d6:	e0 2d       	mov	r30, r0
 5d8:	09 94       	ijmp
 5da:	80 e0       	ldi	r24, 0x00	; 0
 5dc:	90 e0       	ldi	r25, 0x00	; 0
 5de:	08 95       	ret

000005e0 <_ZN5Print5printEPKc>:
 5e0:	e9 cf       	rjmp	.-46     	; 0x5b4 <_ZN5Print5writeEPKc>

000005e2 <_ZN5Print5printEc>:
 5e2:	dc 01       	movw	r26, r24
 5e4:	ed 91       	ld	r30, X+
 5e6:	fc 91       	ld	r31, X
 5e8:	01 90       	ld	r0, Z+
 5ea:	f0 81       	ld	r31, Z
 5ec:	e0 2d       	mov	r30, r0
 5ee:	09 94       	ijmp

000005f0 <_ZN5Print7printlnEv>:
 5f0:	6a e0       	ldi	r22, 0x0A	; 10
 5f2:	f7 cf       	rjmp	.-18     	; 0x5e2 <_ZN5Print5printEc>

000005f4 <_ZN5Print7printlnEPKc>:
 5f4:	0f 93       	push	r16
 5f6:	1f 93       	push	r17
 5f8:	cf 93       	push	r28
 5fa:	df 93       	push	r29
 5fc:	ec 01       	movw	r28, r24
 5fe:	da df       	rcall	.-76     	; 0x5b4 <_ZN5Print5writeEPKc>
 600:	8c 01       	movw	r16, r24
 602:	ce 01       	movw	r24, r28
 604:	f5 df       	rcall	.-22     	; 0x5f0 <_ZN5Print7printlnEv>
 606:	80 0f       	add	r24, r16
 608:	91 1f       	adc	r25, r17
 60a:	df 91       	pop	r29
 60c:	cf 91       	pop	r28
 60e:	1f 91       	pop	r17
 610:	0f 91       	pop	r16
 612:	08 95       	ret

00000614 <_ZN5Print11printNumberEmh>:
 614:	8f 92       	push	r8
 616:	9f 92       	push	r9
 618:	af 92       	push	r10
 61a:	bf 92       	push	r11
 61c:	cf 92       	push	r12
 61e:	df 92       	push	r13
 620:	ef 92       	push	r14
 622:	ff 92       	push	r15
 624:	0f 93       	push	r16
 626:	1f 93       	push	r17
 628:	cf 93       	push	r28
 62a:	df 93       	push	r29
 62c:	cd b7       	in	r28, 0x3d	; 61
 62e:	de b7       	in	r29, 0x3e	; 62
 630:	a1 97       	sbiw	r28, 0x21	; 33
 632:	0f b6       	in	r0, 0x3f	; 63
 634:	f8 94       	cli
 636:	de bf       	out	0x3e, r29	; 62
 638:	0f be       	out	0x3f, r0	; 63
 63a:	cd bf       	out	0x3d, r28	; 61
 63c:	7c 01       	movw	r14, r24
 63e:	c4 2e       	mov	r12, r20
 640:	e5 2f       	mov	r30, r21
 642:	cb 01       	movw	r24, r22
 644:	d2 2e       	mov	r13, r18
 646:	19 a2       	std	Y+33, r1	; 0x21
 648:	21 e0       	ldi	r18, 0x01	; 1
 64a:	2d 15       	cp	r18, r13
 64c:	10 f0       	brcs	.+4      	; 0x652 <_ZN5Print11printNumberEmh+0x3e>
 64e:	2a e0       	ldi	r18, 0x0A	; 10
 650:	d2 2e       	mov	r13, r18
 652:	8e 01       	movw	r16, r28
 654:	0f 5d       	subi	r16, 0xDF	; 223
 656:	1f 4f       	sbci	r17, 0xFF	; 255
 658:	8d 2c       	mov	r8, r13
 65a:	91 2c       	mov	r9, r1
 65c:	a1 2c       	mov	r10, r1
 65e:	b1 2c       	mov	r11, r1
 660:	6c 2d       	mov	r22, r12
 662:	7e 2f       	mov	r23, r30
 664:	a5 01       	movw	r20, r10
 666:	94 01       	movw	r18, r8
 668:	d4 d2       	rcall	.+1448   	; 0xc12 <__udivmodsi4>
 66a:	8c 2d       	mov	r24, r12
 66c:	d2 9e       	mul	r13, r18
 66e:	80 19       	sub	r24, r0
 670:	11 24       	eor	r1, r1
 672:	01 50       	subi	r16, 0x01	; 1
 674:	11 09       	sbc	r17, r1
 676:	8a 30       	cpi	r24, 0x0A	; 10
 678:	10 f4       	brcc	.+4      	; 0x67e <_ZN5Print11printNumberEmh+0x6a>
 67a:	80 5d       	subi	r24, 0xD0	; 208
 67c:	01 c0       	rjmp	.+2      	; 0x680 <_ZN5Print11printNumberEmh+0x6c>
 67e:	89 5c       	subi	r24, 0xC9	; 201
 680:	f8 01       	movw	r30, r16
 682:	80 83       	st	Z, r24
 684:	21 15       	cp	r18, r1
 686:	31 05       	cpc	r19, r1
 688:	41 05       	cpc	r20, r1
 68a:	51 05       	cpc	r21, r1
 68c:	21 f0       	breq	.+8      	; 0x696 <_ZN5Print11printNumberEmh+0x82>
 68e:	c2 2e       	mov	r12, r18
 690:	e3 2f       	mov	r30, r19
 692:	ca 01       	movw	r24, r20
 694:	e5 cf       	rjmp	.-54     	; 0x660 <_ZN5Print11printNumberEmh+0x4c>
 696:	b8 01       	movw	r22, r16
 698:	c7 01       	movw	r24, r14
 69a:	8c df       	rcall	.-232    	; 0x5b4 <_ZN5Print5writeEPKc>
 69c:	a1 96       	adiw	r28, 0x21	; 33
 69e:	0f b6       	in	r0, 0x3f	; 63
 6a0:	f8 94       	cli
 6a2:	de bf       	out	0x3e, r29	; 62
 6a4:	0f be       	out	0x3f, r0	; 63
 6a6:	cd bf       	out	0x3d, r28	; 61
 6a8:	df 91       	pop	r29
 6aa:	cf 91       	pop	r28
 6ac:	1f 91       	pop	r17
 6ae:	0f 91       	pop	r16
 6b0:	ff 90       	pop	r15
 6b2:	ef 90       	pop	r14
 6b4:	df 90       	pop	r13
 6b6:	cf 90       	pop	r12
 6b8:	bf 90       	pop	r11
 6ba:	af 90       	pop	r10
 6bc:	9f 90       	pop	r9
 6be:	8f 90       	pop	r8
 6c0:	08 95       	ret

000006c2 <_ZN5Print5printEmi>:
 6c2:	21 15       	cp	r18, r1
 6c4:	31 05       	cpc	r19, r1
 6c6:	41 f4       	brne	.+16     	; 0x6d8 <_ZN5Print5printEmi+0x16>
 6c8:	dc 01       	movw	r26, r24
 6ca:	ed 91       	ld	r30, X+
 6cc:	fc 91       	ld	r31, X
 6ce:	01 90       	ld	r0, Z+
 6d0:	f0 81       	ld	r31, Z
 6d2:	e0 2d       	mov	r30, r0
 6d4:	64 2f       	mov	r22, r20
 6d6:	09 94       	ijmp
 6d8:	9d cf       	rjmp	.-198    	; 0x614 <_ZN5Print11printNumberEmh>

000006da <_ZN5Print5printEhi>:
 6da:	9a 01       	movw	r18, r20
 6dc:	46 2f       	mov	r20, r22
 6de:	50 e0       	ldi	r21, 0x00	; 0
 6e0:	60 e0       	ldi	r22, 0x00	; 0
 6e2:	70 e0       	ldi	r23, 0x00	; 0
 6e4:	ee cf       	rjmp	.-36     	; 0x6c2 <_ZN5Print5printEmi>

000006e6 <_Z12disableTimerh>:
 6e6:	81 30       	cpi	r24, 0x01	; 1
 6e8:	39 f0       	breq	.+14     	; 0x6f8 <_Z12disableTimerh+0x12>
 6ea:	18 f0       	brcs	.+6      	; 0x6f2 <_Z12disableTimerh+0xc>
 6ec:	82 30       	cpi	r24, 0x02	; 2
 6ee:	51 f0       	breq	.+20     	; 0x704 <_Z12disableTimerh+0x1e>
 6f0:	08 95       	ret
 6f2:	10 92 6e 00 	sts	0x006E, r1
 6f6:	08 95       	ret
 6f8:	80 91 6f 00 	lds	r24, 0x006F
 6fc:	8d 7f       	andi	r24, 0xFD	; 253
 6fe:	80 93 6f 00 	sts	0x006F, r24
 702:	08 95       	ret
 704:	80 91 70 00 	lds	r24, 0x0070
 708:	8d 7f       	andi	r24, 0xFD	; 253
 70a:	80 93 70 00 	sts	0x0070, r24
 70e:	81 e0       	ldi	r24, 0x01	; 1
 710:	80 93 b0 00 	sts	0x00B0, r24
 714:	80 91 b1 00 	lds	r24, 0x00B1
 718:	88 7f       	andi	r24, 0xF8	; 248
 71a:	84 60       	ori	r24, 0x04	; 4
 71c:	80 93 b1 00 	sts	0x00B1, r24
 720:	10 92 b3 00 	sts	0x00B3, r1
 724:	08 95       	ret

00000726 <_Z6noToneh>:
 726:	cf 93       	push	r28
 728:	c8 2f       	mov	r28, r24
 72a:	80 91 0a 01 	lds	r24, 0x010A
 72e:	8c 13       	cpse	r24, r28
 730:	07 c0       	rjmp	.+14     	; 0x740 <_Z6noToneh+0x1a>
 732:	e8 e6       	ldi	r30, 0x68	; 104
 734:	f0 e0       	ldi	r31, 0x00	; 0
 736:	84 91       	lpm	r24, Z
 738:	9f ef       	ldi	r25, 0xFF	; 255
 73a:	90 93 0a 01 	sts	0x010A, r25
 73e:	01 c0       	rjmp	.+2      	; 0x742 <_Z6noToneh+0x1c>
 740:	8f ef       	ldi	r24, 0xFF	; 255
 742:	d1 df       	rcall	.-94     	; 0x6e6 <_Z12disableTimerh>
 744:	60 e0       	ldi	r22, 0x00	; 0
 746:	8c 2f       	mov	r24, r28
 748:	cf 91       	pop	r28
 74a:	a5 c1       	rjmp	.+842    	; 0xa96 <digitalWrite>

0000074c <__vector_7>:
 74c:	1f 92       	push	r1
 74e:	0f 92       	push	r0
 750:	0f b6       	in	r0, 0x3f	; 63
 752:	0f 92       	push	r0
 754:	11 24       	eor	r1, r1
 756:	2f 93       	push	r18
 758:	3f 93       	push	r19
 75a:	4f 93       	push	r20
 75c:	5f 93       	push	r21
 75e:	6f 93       	push	r22
 760:	7f 93       	push	r23
 762:	8f 93       	push	r24
 764:	9f 93       	push	r25
 766:	af 93       	push	r26
 768:	bf 93       	push	r27
 76a:	ef 93       	push	r30
 76c:	ff 93       	push	r31
 76e:	80 91 0d 02 	lds	r24, 0x020D
 772:	90 91 0e 02 	lds	r25, 0x020E
 776:	a0 91 0f 02 	lds	r26, 0x020F
 77a:	b0 91 10 02 	lds	r27, 0x0210
 77e:	89 2b       	or	r24, r25
 780:	8a 2b       	or	r24, r26
 782:	8b 2b       	or	r24, r27
 784:	51 f1       	breq	.+84     	; 0x7da <__vector_7+0x8e>
 786:	90 91 0a 02 	lds	r25, 0x020A
 78a:	e0 91 0b 02 	lds	r30, 0x020B
 78e:	f0 91 0c 02 	lds	r31, 0x020C
 792:	80 81       	ld	r24, Z
 794:	89 27       	eor	r24, r25
 796:	80 83       	st	Z, r24
 798:	80 91 0d 02 	lds	r24, 0x020D
 79c:	90 91 0e 02 	lds	r25, 0x020E
 7a0:	a0 91 0f 02 	lds	r26, 0x020F
 7a4:	b0 91 10 02 	lds	r27, 0x0210
 7a8:	18 16       	cp	r1, r24
 7aa:	19 06       	cpc	r1, r25
 7ac:	1a 06       	cpc	r1, r26
 7ae:	1b 06       	cpc	r1, r27
 7b0:	bc f4       	brge	.+46     	; 0x7e0 <__vector_7+0x94>
 7b2:	80 91 0d 02 	lds	r24, 0x020D
 7b6:	90 91 0e 02 	lds	r25, 0x020E
 7ba:	a0 91 0f 02 	lds	r26, 0x020F
 7be:	b0 91 10 02 	lds	r27, 0x0210
 7c2:	01 97       	sbiw	r24, 0x01	; 1
 7c4:	a1 09       	sbc	r26, r1
 7c6:	b1 09       	sbc	r27, r1
 7c8:	80 93 0d 02 	sts	0x020D, r24
 7cc:	90 93 0e 02 	sts	0x020E, r25
 7d0:	a0 93 0f 02 	sts	0x020F, r26
 7d4:	b0 93 10 02 	sts	0x0210, r27
 7d8:	03 c0       	rjmp	.+6      	; 0x7e0 <__vector_7+0x94>
 7da:	80 91 0a 01 	lds	r24, 0x010A
 7de:	a3 df       	rcall	.-186    	; 0x726 <_Z6noToneh>
 7e0:	ff 91       	pop	r31
 7e2:	ef 91       	pop	r30
 7e4:	bf 91       	pop	r27
 7e6:	af 91       	pop	r26
 7e8:	9f 91       	pop	r25
 7ea:	8f 91       	pop	r24
 7ec:	7f 91       	pop	r23
 7ee:	6f 91       	pop	r22
 7f0:	5f 91       	pop	r21
 7f2:	4f 91       	pop	r20
 7f4:	3f 91       	pop	r19
 7f6:	2f 91       	pop	r18
 7f8:	0f 90       	pop	r0
 7fa:	0f be       	out	0x3f, r0	; 63
 7fc:	0f 90       	pop	r0
 7fe:	1f 90       	pop	r1
 800:	18 95       	reti

00000802 <__vector_1>:
 802:	1f 92       	push	r1
 804:	0f 92       	push	r0
 806:	0f b6       	in	r0, 0x3f	; 63
 808:	0f 92       	push	r0
 80a:	11 24       	eor	r1, r1
 80c:	2f 93       	push	r18
 80e:	3f 93       	push	r19
 810:	4f 93       	push	r20
 812:	5f 93       	push	r21
 814:	6f 93       	push	r22
 816:	7f 93       	push	r23
 818:	8f 93       	push	r24
 81a:	9f 93       	push	r25
 81c:	af 93       	push	r26
 81e:	bf 93       	push	r27
 820:	ef 93       	push	r30
 822:	ff 93       	push	r31
 824:	80 91 11 02 	lds	r24, 0x0211
 828:	90 91 12 02 	lds	r25, 0x0212
 82c:	89 2b       	or	r24, r25
 82e:	29 f0       	breq	.+10     	; 0x83a <__vector_1+0x38>
 830:	e0 91 11 02 	lds	r30, 0x0211
 834:	f0 91 12 02 	lds	r31, 0x0212
 838:	09 95       	icall
 83a:	ff 91       	pop	r31
 83c:	ef 91       	pop	r30
 83e:	bf 91       	pop	r27
 840:	af 91       	pop	r26
 842:	9f 91       	pop	r25
 844:	8f 91       	pop	r24
 846:	7f 91       	pop	r23
 848:	6f 91       	pop	r22
 84a:	5f 91       	pop	r21
 84c:	4f 91       	pop	r20
 84e:	3f 91       	pop	r19
 850:	2f 91       	pop	r18
 852:	0f 90       	pop	r0
 854:	0f be       	out	0x3f, r0	; 63
 856:	0f 90       	pop	r0
 858:	1f 90       	pop	r1
 85a:	18 95       	reti

0000085c <__vector_2>:
 85c:	1f 92       	push	r1
 85e:	0f 92       	push	r0
 860:	0f b6       	in	r0, 0x3f	; 63
 862:	0f 92       	push	r0
 864:	11 24       	eor	r1, r1
 866:	2f 93       	push	r18
 868:	3f 93       	push	r19
 86a:	4f 93       	push	r20
 86c:	5f 93       	push	r21
 86e:	6f 93       	push	r22
 870:	7f 93       	push	r23
 872:	8f 93       	push	r24
 874:	9f 93       	push	r25
 876:	af 93       	push	r26
 878:	bf 93       	push	r27
 87a:	ef 93       	push	r30
 87c:	ff 93       	push	r31
 87e:	80 91 13 02 	lds	r24, 0x0213
 882:	90 91 14 02 	lds	r25, 0x0214
 886:	89 2b       	or	r24, r25
 888:	29 f0       	breq	.+10     	; 0x894 <__vector_2+0x38>
 88a:	e0 91 13 02 	lds	r30, 0x0213
 88e:	f0 91 14 02 	lds	r31, 0x0214
 892:	09 95       	icall
 894:	ff 91       	pop	r31
 896:	ef 91       	pop	r30
 898:	bf 91       	pop	r27
 89a:	af 91       	pop	r26
 89c:	9f 91       	pop	r25
 89e:	8f 91       	pop	r24
 8a0:	7f 91       	pop	r23
 8a2:	6f 91       	pop	r22
 8a4:	5f 91       	pop	r21
 8a6:	4f 91       	pop	r20
 8a8:	3f 91       	pop	r19
 8aa:	2f 91       	pop	r18
 8ac:	0f 90       	pop	r0
 8ae:	0f be       	out	0x3f, r0	; 63
 8b0:	0f 90       	pop	r0
 8b2:	1f 90       	pop	r1
 8b4:	18 95       	reti

000008b6 <main>:
 8b6:	52 d0       	rcall	.+164    	; 0x95c <init>
 8b8:	9a d1       	rcall	.+820    	; 0xbee <setup>
 8ba:	c3 e5       	ldi	r28, 0x53	; 83
 8bc:	d1 e0       	ldi	r29, 0x01	; 1
 8be:	9d d1       	rcall	.+826    	; 0xbfa <loop>
 8c0:	20 97       	sbiw	r28, 0x00	; 0
 8c2:	e9 f3       	breq	.-6      	; 0x8be <main+0x8>
 8c4:	f0 dc       	rcall	.-1568   	; 0x2a6 <_Z14serialEventRunv>
 8c6:	fb cf       	rjmp	.-10     	; 0x8be <main+0x8>

000008c8 <__vector_16>:
 8c8:	1f 92       	push	r1
 8ca:	0f 92       	push	r0
 8cc:	0f b6       	in	r0, 0x3f	; 63
 8ce:	0f 92       	push	r0
 8d0:	11 24       	eor	r1, r1
 8d2:	2f 93       	push	r18
 8d4:	3f 93       	push	r19
 8d6:	8f 93       	push	r24
 8d8:	9f 93       	push	r25
 8da:	af 93       	push	r26
 8dc:	bf 93       	push	r27
 8de:	80 91 16 02 	lds	r24, 0x0216
 8e2:	90 91 17 02 	lds	r25, 0x0217
 8e6:	a0 91 18 02 	lds	r26, 0x0218
 8ea:	b0 91 19 02 	lds	r27, 0x0219
 8ee:	30 91 15 02 	lds	r19, 0x0215
 8f2:	23 e0       	ldi	r18, 0x03	; 3
 8f4:	23 0f       	add	r18, r19
 8f6:	2d 37       	cpi	r18, 0x7D	; 125
 8f8:	20 f4       	brcc	.+8      	; 0x902 <__stack+0x3>
 8fa:	01 96       	adiw	r24, 0x01	; 1
 8fc:	a1 1d       	adc	r26, r1
 8fe:	b1 1d       	adc	r27, r1
 900:	05 c0       	rjmp	.+10     	; 0x90c <__stack+0xd>
 902:	26 e8       	ldi	r18, 0x86	; 134
 904:	23 0f       	add	r18, r19
 906:	02 96       	adiw	r24, 0x02	; 2
 908:	a1 1d       	adc	r26, r1
 90a:	b1 1d       	adc	r27, r1
 90c:	20 93 15 02 	sts	0x0215, r18
 910:	80 93 16 02 	sts	0x0216, r24
 914:	90 93 17 02 	sts	0x0217, r25
 918:	a0 93 18 02 	sts	0x0218, r26
 91c:	b0 93 19 02 	sts	0x0219, r27
 920:	80 91 1a 02 	lds	r24, 0x021A
 924:	90 91 1b 02 	lds	r25, 0x021B
 928:	a0 91 1c 02 	lds	r26, 0x021C
 92c:	b0 91 1d 02 	lds	r27, 0x021D
 930:	01 96       	adiw	r24, 0x01	; 1
 932:	a1 1d       	adc	r26, r1
 934:	b1 1d       	adc	r27, r1
 936:	80 93 1a 02 	sts	0x021A, r24
 93a:	90 93 1b 02 	sts	0x021B, r25
 93e:	a0 93 1c 02 	sts	0x021C, r26
 942:	b0 93 1d 02 	sts	0x021D, r27
 946:	bf 91       	pop	r27
 948:	af 91       	pop	r26
 94a:	9f 91       	pop	r25
 94c:	8f 91       	pop	r24
 94e:	3f 91       	pop	r19
 950:	2f 91       	pop	r18
 952:	0f 90       	pop	r0
 954:	0f be       	out	0x3f, r0	; 63
 956:	0f 90       	pop	r0
 958:	1f 90       	pop	r1
 95a:	18 95       	reti

0000095c <init>:
 95c:	78 94       	sei
 95e:	84 b5       	in	r24, 0x24	; 36
 960:	82 60       	ori	r24, 0x02	; 2
 962:	84 bd       	out	0x24, r24	; 36
 964:	84 b5       	in	r24, 0x24	; 36
 966:	81 60       	ori	r24, 0x01	; 1
 968:	84 bd       	out	0x24, r24	; 36
 96a:	85 b5       	in	r24, 0x25	; 37
 96c:	82 60       	ori	r24, 0x02	; 2
 96e:	85 bd       	out	0x25, r24	; 37
 970:	85 b5       	in	r24, 0x25	; 37
 972:	81 60       	ori	r24, 0x01	; 1
 974:	85 bd       	out	0x25, r24	; 37
 976:	ee e6       	ldi	r30, 0x6E	; 110
 978:	f0 e0       	ldi	r31, 0x00	; 0
 97a:	80 81       	ld	r24, Z
 97c:	81 60       	ori	r24, 0x01	; 1
 97e:	80 83       	st	Z, r24
 980:	e1 e8       	ldi	r30, 0x81	; 129
 982:	f0 e0       	ldi	r31, 0x00	; 0
 984:	10 82       	st	Z, r1
 986:	80 81       	ld	r24, Z
 988:	82 60       	ori	r24, 0x02	; 2
 98a:	80 83       	st	Z, r24
 98c:	80 81       	ld	r24, Z
 98e:	81 60       	ori	r24, 0x01	; 1
 990:	80 83       	st	Z, r24
 992:	e0 e8       	ldi	r30, 0x80	; 128
 994:	f0 e0       	ldi	r31, 0x00	; 0
 996:	80 81       	ld	r24, Z
 998:	81 60       	ori	r24, 0x01	; 1
 99a:	80 83       	st	Z, r24
 99c:	e1 eb       	ldi	r30, 0xB1	; 177
 99e:	f0 e0       	ldi	r31, 0x00	; 0
 9a0:	80 81       	ld	r24, Z
 9a2:	84 60       	ori	r24, 0x04	; 4
 9a4:	80 83       	st	Z, r24
 9a6:	e0 eb       	ldi	r30, 0xB0	; 176
 9a8:	f0 e0       	ldi	r31, 0x00	; 0
 9aa:	80 81       	ld	r24, Z
 9ac:	81 60       	ori	r24, 0x01	; 1
 9ae:	80 83       	st	Z, r24
 9b0:	ea e7       	ldi	r30, 0x7A	; 122
 9b2:	f0 e0       	ldi	r31, 0x00	; 0
 9b4:	80 81       	ld	r24, Z
 9b6:	84 60       	ori	r24, 0x04	; 4
 9b8:	80 83       	st	Z, r24
 9ba:	80 81       	ld	r24, Z
 9bc:	82 60       	ori	r24, 0x02	; 2
 9be:	80 83       	st	Z, r24
 9c0:	80 81       	ld	r24, Z
 9c2:	81 60       	ori	r24, 0x01	; 1
 9c4:	80 83       	st	Z, r24
 9c6:	80 81       	ld	r24, Z
 9c8:	80 68       	ori	r24, 0x80	; 128
 9ca:	80 83       	st	Z, r24
 9cc:	10 92 c1 00 	sts	0x00C1, r1
 9d0:	08 95       	ret

000009d2 <turnOffPWM>:
 9d2:	83 30       	cpi	r24, 0x03	; 3
 9d4:	81 f0       	breq	.+32     	; 0x9f6 <turnOffPWM+0x24>
 9d6:	28 f4       	brcc	.+10     	; 0x9e2 <turnOffPWM+0x10>
 9d8:	81 30       	cpi	r24, 0x01	; 1
 9da:	99 f0       	breq	.+38     	; 0xa02 <turnOffPWM+0x30>
 9dc:	82 30       	cpi	r24, 0x02	; 2
 9de:	a1 f0       	breq	.+40     	; 0xa08 <turnOffPWM+0x36>
 9e0:	08 95       	ret
 9e2:	86 30       	cpi	r24, 0x06	; 6
 9e4:	a9 f0       	breq	.+42     	; 0xa10 <turnOffPWM+0x3e>
 9e6:	87 30       	cpi	r24, 0x07	; 7
 9e8:	b9 f0       	breq	.+46     	; 0xa18 <turnOffPWM+0x46>
 9ea:	84 30       	cpi	r24, 0x04	; 4
 9ec:	d1 f4       	brne	.+52     	; 0xa22 <turnOffPWM+0x50>
 9ee:	80 91 80 00 	lds	r24, 0x0080
 9f2:	8f 7d       	andi	r24, 0xDF	; 223
 9f4:	03 c0       	rjmp	.+6      	; 0x9fc <turnOffPWM+0x2a>
 9f6:	80 91 80 00 	lds	r24, 0x0080
 9fa:	8f 77       	andi	r24, 0x7F	; 127
 9fc:	80 93 80 00 	sts	0x0080, r24
 a00:	08 95       	ret
 a02:	84 b5       	in	r24, 0x24	; 36
 a04:	8f 77       	andi	r24, 0x7F	; 127
 a06:	02 c0       	rjmp	.+4      	; 0xa0c <turnOffPWM+0x3a>
 a08:	84 b5       	in	r24, 0x24	; 36
 a0a:	8f 7d       	andi	r24, 0xDF	; 223
 a0c:	84 bd       	out	0x24, r24	; 36
 a0e:	08 95       	ret
 a10:	80 91 b0 00 	lds	r24, 0x00B0
 a14:	8f 77       	andi	r24, 0x7F	; 127
 a16:	03 c0       	rjmp	.+6      	; 0xa1e <turnOffPWM+0x4c>
 a18:	80 91 b0 00 	lds	r24, 0x00B0
 a1c:	8f 7d       	andi	r24, 0xDF	; 223
 a1e:	80 93 b0 00 	sts	0x00B0, r24
 a22:	08 95       	ret

00000a24 <pinMode>:
 a24:	cf 93       	push	r28
 a26:	df 93       	push	r29
 a28:	90 e0       	ldi	r25, 0x00	; 0
 a2a:	fc 01       	movw	r30, r24
 a2c:	e3 58       	subi	r30, 0x83	; 131
 a2e:	ff 4f       	sbci	r31, 0xFF	; 255
 a30:	24 91       	lpm	r18, Z
 a32:	fc 01       	movw	r30, r24
 a34:	ef 56       	subi	r30, 0x6F	; 111
 a36:	ff 4f       	sbci	r31, 0xFF	; 255
 a38:	84 91       	lpm	r24, Z
 a3a:	88 23       	and	r24, r24
 a3c:	49 f1       	breq	.+82     	; 0xa90 <pinMode+0x6c>
 a3e:	90 e0       	ldi	r25, 0x00	; 0
 a40:	88 0f       	add	r24, r24
 a42:	99 1f       	adc	r25, r25
 a44:	fc 01       	movw	r30, r24
 a46:	e1 55       	subi	r30, 0x51	; 81
 a48:	ff 4f       	sbci	r31, 0xFF	; 255
 a4a:	a5 91       	lpm	r26, Z+
 a4c:	b4 91       	lpm	r27, Z
 a4e:	8b 55       	subi	r24, 0x5B	; 91
 a50:	9f 4f       	sbci	r25, 0xFF	; 255
 a52:	fc 01       	movw	r30, r24
 a54:	c5 91       	lpm	r28, Z+
 a56:	d4 91       	lpm	r29, Z
 a58:	9f b7       	in	r25, 0x3f	; 63
 a5a:	61 11       	cpse	r22, r1
 a5c:	08 c0       	rjmp	.+16     	; 0xa6e <pinMode+0x4a>
 a5e:	f8 94       	cli
 a60:	8c 91       	ld	r24, X
 a62:	20 95       	com	r18
 a64:	82 23       	and	r24, r18
 a66:	8c 93       	st	X, r24
 a68:	88 81       	ld	r24, Y
 a6a:	82 23       	and	r24, r18
 a6c:	0a c0       	rjmp	.+20     	; 0xa82 <pinMode+0x5e>
 a6e:	62 30       	cpi	r22, 0x02	; 2
 a70:	51 f4       	brne	.+20     	; 0xa86 <pinMode+0x62>
 a72:	f8 94       	cli
 a74:	8c 91       	ld	r24, X
 a76:	32 2f       	mov	r19, r18
 a78:	30 95       	com	r19
 a7a:	83 23       	and	r24, r19
 a7c:	8c 93       	st	X, r24
 a7e:	88 81       	ld	r24, Y
 a80:	82 2b       	or	r24, r18
 a82:	88 83       	st	Y, r24
 a84:	04 c0       	rjmp	.+8      	; 0xa8e <pinMode+0x6a>
 a86:	f8 94       	cli
 a88:	8c 91       	ld	r24, X
 a8a:	82 2b       	or	r24, r18
 a8c:	8c 93       	st	X, r24
 a8e:	9f bf       	out	0x3f, r25	; 63
 a90:	df 91       	pop	r29
 a92:	cf 91       	pop	r28
 a94:	08 95       	ret

00000a96 <digitalWrite>:
 a96:	0f 93       	push	r16
 a98:	1f 93       	push	r17
 a9a:	cf 93       	push	r28
 a9c:	df 93       	push	r29
 a9e:	1f 92       	push	r1
 aa0:	cd b7       	in	r28, 0x3d	; 61
 aa2:	de b7       	in	r29, 0x3e	; 62
 aa4:	28 2f       	mov	r18, r24
 aa6:	30 e0       	ldi	r19, 0x00	; 0
 aa8:	f9 01       	movw	r30, r18
 aaa:	e7 59       	subi	r30, 0x97	; 151
 aac:	ff 4f       	sbci	r31, 0xFF	; 255
 aae:	84 91       	lpm	r24, Z
 ab0:	f9 01       	movw	r30, r18
 ab2:	e3 58       	subi	r30, 0x83	; 131
 ab4:	ff 4f       	sbci	r31, 0xFF	; 255
 ab6:	14 91       	lpm	r17, Z
 ab8:	f9 01       	movw	r30, r18
 aba:	ef 56       	subi	r30, 0x6F	; 111
 abc:	ff 4f       	sbci	r31, 0xFF	; 255
 abe:	04 91       	lpm	r16, Z
 ac0:	00 23       	and	r16, r16
 ac2:	c1 f0       	breq	.+48     	; 0xaf4 <digitalWrite+0x5e>
 ac4:	88 23       	and	r24, r24
 ac6:	19 f0       	breq	.+6      	; 0xace <digitalWrite+0x38>
 ac8:	69 83       	std	Y+1, r22	; 0x01
 aca:	83 df       	rcall	.-250    	; 0x9d2 <turnOffPWM>
 acc:	69 81       	ldd	r22, Y+1	; 0x01
 ace:	e0 2f       	mov	r30, r16
 ad0:	f0 e0       	ldi	r31, 0x00	; 0
 ad2:	ee 0f       	add	r30, r30
 ad4:	ff 1f       	adc	r31, r31
 ad6:	eb 55       	subi	r30, 0x5B	; 91
 ad8:	ff 4f       	sbci	r31, 0xFF	; 255
 ada:	a5 91       	lpm	r26, Z+
 adc:	b4 91       	lpm	r27, Z
 ade:	9f b7       	in	r25, 0x3f	; 63
 ae0:	f8 94       	cli
 ae2:	8c 91       	ld	r24, X
 ae4:	61 11       	cpse	r22, r1
 ae6:	03 c0       	rjmp	.+6      	; 0xaee <digitalWrite+0x58>
 ae8:	10 95       	com	r17
 aea:	81 23       	and	r24, r17
 aec:	01 c0       	rjmp	.+2      	; 0xaf0 <digitalWrite+0x5a>
 aee:	81 2b       	or	r24, r17
 af0:	8c 93       	st	X, r24
 af2:	9f bf       	out	0x3f, r25	; 63
 af4:	0f 90       	pop	r0
 af6:	df 91       	pop	r29
 af8:	cf 91       	pop	r28
 afa:	1f 91       	pop	r17
 afc:	0f 91       	pop	r16
 afe:	08 95       	ret

00000b00 <_ZN14SerialTerminalC1Ev>:
 b00:	fc 01       	movw	r30, r24
 b02:	e1 50       	subi	r30, 0x01	; 1
 b04:	ff 4f       	sbci	r31, 0xFF	; 255
 b06:	10 82       	st	Z, r1
 b08:	31 96       	adiw	r30, 0x01	; 1
 b0a:	2f ef       	ldi	r18, 0xFF	; 255
 b0c:	3f ef       	ldi	r19, 0xFF	; 255
 b0e:	31 83       	std	Z+1, r19	; 0x01
 b10:	20 83       	st	Z, r18
 b12:	fc 01       	movw	r30, r24
 b14:	11 92       	st	Z+, r1
 b16:	2a 95       	dec	r18
 b18:	e9 f7       	brne	.-6      	; 0xb14 <_ZN14SerialTerminalC1Ev+0x14>
 b1a:	08 95       	ret

00000b1c <_ZN14SerialTerminalD1Ev>:
 b1c:	08 95       	ret

00000b1e <_ZN14SerialTerminal4initEv>:
 b1e:	40 e8       	ldi	r20, 0x80	; 128
 b20:	55 e2       	ldi	r21, 0x25	; 37
 b22:	60 e0       	ldi	r22, 0x00	; 0
 b24:	70 e0       	ldi	r23, 0x00	; 0
 b26:	8a e5       	ldi	r24, 0x5A	; 90
 b28:	91 e0       	ldi	r25, 0x01	; 1
 b2a:	ff cb       	rjmp	.-2050   	; 0x32a <_ZN14HardwareSerial5beginEm>

00000b2c <_ZN14SerialTerminal10executeCmdEv>:
 b2c:	0f 93       	push	r16
 b2e:	1f 93       	push	r17
 b30:	cf 93       	push	r28
 b32:	df 93       	push	r29
 b34:	ec 01       	movw	r28, r24
 b36:	8c 01       	movw	r16, r24
 b38:	01 50       	subi	r16, 0x01	; 1
 b3a:	1f 4f       	sbci	r17, 0xFF	; 255
 b3c:	f8 01       	movw	r30, r16
 b3e:	80 81       	ld	r24, Z
 b40:	80 ff       	sbrs	r24, 0
 b42:	22 c0       	rjmp	.+68     	; 0xb88 <_ZN14SerialTerminal10executeCmdEv+0x5c>
 b44:	88 81       	ld	r24, Y
 b46:	81 11       	cpse	r24, r1
 b48:	06 c0       	rjmp	.+12     	; 0xb56 <_ZN14SerialTerminal10executeCmdEv+0x2a>
 b4a:	61 e2       	ldi	r22, 0x21	; 33
 b4c:	71 e0       	ldi	r23, 0x01	; 1
 b4e:	8a e5       	ldi	r24, 0x5A	; 90
 b50:	91 e0       	ldi	r25, 0x01	; 1
 b52:	46 dd       	rcall	.-1396   	; 0x5e0 <_ZN5Print5printEPKc>
 b54:	12 c0       	rjmp	.+36     	; 0xb7a <_ZN14SerialTerminal10executeCmdEv+0x4e>
 b56:	60 e3       	ldi	r22, 0x30	; 48
 b58:	71 e0       	ldi	r23, 0x01	; 1
 b5a:	ce 01       	movw	r24, r28
 b5c:	8d d0       	rcall	.+282    	; 0xc78 <strcmp>
 b5e:	89 2b       	or	r24, r25
 b60:	19 f4       	brne	.+6      	; 0xb68 <_ZN14SerialTerminal10executeCmdEv+0x3c>
 b62:	65 e3       	ldi	r22, 0x35	; 53
 b64:	71 e0       	ldi	r23, 0x01	; 1
 b66:	06 c0       	rjmp	.+12     	; 0xb74 <_ZN14SerialTerminal10executeCmdEv+0x48>
 b68:	be 01       	movw	r22, r28
 b6a:	8a e5       	ldi	r24, 0x5A	; 90
 b6c:	91 e0       	ldi	r25, 0x01	; 1
 b6e:	38 dd       	rcall	.-1424   	; 0x5e0 <_ZN5Print5printEPKc>
 b70:	65 e4       	ldi	r22, 0x45	; 69
 b72:	71 e0       	ldi	r23, 0x01	; 1
 b74:	8a e5       	ldi	r24, 0x5A	; 90
 b76:	91 e0       	ldi	r25, 0x01	; 1
 b78:	3d dd       	rcall	.-1414   	; 0x5f4 <_ZN5Print7printlnEPKc>
 b7a:	8f ef       	ldi	r24, 0xFF	; 255
 b7c:	fe 01       	movw	r30, r28
 b7e:	11 92       	st	Z+, r1
 b80:	8a 95       	dec	r24
 b82:	e9 f7       	brne	.-6      	; 0xb7e <_ZN14SerialTerminal10executeCmdEv+0x52>
 b84:	f8 01       	movw	r30, r16
 b86:	10 82       	st	Z, r1
 b88:	df 91       	pop	r29
 b8a:	cf 91       	pop	r28
 b8c:	1f 91       	pop	r17
 b8e:	0f 91       	pop	r16
 b90:	08 95       	ret

00000b92 <_ZN14SerialTerminal17processReadedSignEc>:
 b92:	cf 93       	push	r28
 b94:	df 93       	push	r29
 b96:	00 d0       	rcall	.+0      	; 0xb98 <_ZN14SerialTerminal17processReadedSignEc+0x6>
 b98:	cd b7       	in	r28, 0x3d	; 61
 b9a:	de b7       	in	r29, 0x3e	; 62
 b9c:	6a 30       	cpi	r22, 0x0A	; 10
 b9e:	39 f4       	brne	.+14     	; 0xbae <_ZN14SerialTerminal17processReadedSignEc+0x1c>
 ba0:	fc 01       	movw	r30, r24
 ba2:	e1 50       	subi	r30, 0x01	; 1
 ba4:	ff 4f       	sbci	r31, 0xFF	; 255
 ba6:	80 81       	ld	r24, Z
 ba8:	81 60       	ori	r24, 0x01	; 1
 baa:	80 83       	st	Z, r24
 bac:	07 c0       	rjmp	.+14     	; 0xbbc <_ZN14SerialTerminal17processReadedSignEc+0x2a>
 bae:	1a 82       	std	Y+2, r1	; 0x02
 bb0:	19 82       	std	Y+1, r1	; 0x01
 bb2:	69 83       	std	Y+1, r22	; 0x01
 bb4:	be 01       	movw	r22, r28
 bb6:	6f 5f       	subi	r22, 0xFF	; 255
 bb8:	7f 4f       	sbci	r23, 0xFF	; 255
 bba:	53 d0       	rcall	.+166    	; 0xc62 <strcat>
 bbc:	0f 90       	pop	r0
 bbe:	0f 90       	pop	r0
 bc0:	df 91       	pop	r29
 bc2:	cf 91       	pop	r28
 bc4:	08 95       	ret

00000bc6 <_ZN14SerialTerminal9readInputEv>:
 bc6:	cf 93       	push	r28
 bc8:	df 93       	push	r29
 bca:	ec 01       	movw	r28, r24
 bcc:	8a e5       	ldi	r24, 0x5A	; 90
 bce:	91 e0       	ldi	r25, 0x01	; 1
 bd0:	c7 da       	rcall	.-2674   	; 0x160 <_ZN14HardwareSerial4readEv>
 bd2:	fe 01       	movw	r30, r28
 bd4:	f3 95       	inc	r31
 bd6:	91 83       	std	Z+1, r25	; 0x01
 bd8:	80 83       	st	Z, r24
 bda:	97 fd       	sbrc	r25, 7
 bdc:	05 c0       	rjmp	.+10     	; 0xbe8 <_ZN14SerialTerminal9readInputEv+0x22>
 bde:	68 2f       	mov	r22, r24
 be0:	ce 01       	movw	r24, r28
 be2:	df 91       	pop	r29
 be4:	cf 91       	pop	r28
 be6:	d5 cf       	rjmp	.-86     	; 0xb92 <_ZN14SerialTerminal17processReadedSignEc>
 be8:	df 91       	pop	r29
 bea:	cf 91       	pop	r28
 bec:	08 95       	ret

00000bee <setup>:
 bee:	8e e1       	ldi	r24, 0x1E	; 30
 bf0:	92 e0       	ldi	r25, 0x02	; 2
 bf2:	95 df       	rcall	.-214    	; 0xb1e <_ZN14SerialTerminal4initEv>
 bf4:	61 e0       	ldi	r22, 0x01	; 1
 bf6:	8d e0       	ldi	r24, 0x0D	; 13
 bf8:	15 cf       	rjmp	.-470    	; 0xa24 <pinMode>

00000bfa <loop>:
 bfa:	8e e1       	ldi	r24, 0x1E	; 30
 bfc:	92 e0       	ldi	r25, 0x02	; 2
 bfe:	e3 df       	rcall	.-58     	; 0xbc6 <_ZN14SerialTerminal9readInputEv>
 c00:	8e e1       	ldi	r24, 0x1E	; 30
 c02:	92 e0       	ldi	r25, 0x02	; 2
 c04:	93 cf       	rjmp	.-218    	; 0xb2c <_ZN14SerialTerminal10executeCmdEv>

00000c06 <_GLOBAL__sub_I_Terminal>:
 c06:	8e e1       	ldi	r24, 0x1E	; 30
 c08:	92 e0       	ldi	r25, 0x02	; 2
 c0a:	7a cf       	rjmp	.-268    	; 0xb00 <_ZN14SerialTerminalC1Ev>

00000c0c <_GLOBAL__sub_D_Terminal>:
 c0c:	8e e1       	ldi	r24, 0x1E	; 30
 c0e:	92 e0       	ldi	r25, 0x02	; 2
 c10:	85 cf       	rjmp	.-246    	; 0xb1c <_ZN14SerialTerminalD1Ev>

00000c12 <__udivmodsi4>:
 c12:	a1 e2       	ldi	r26, 0x21	; 33
 c14:	1a 2e       	mov	r1, r26
 c16:	aa 1b       	sub	r26, r26
 c18:	bb 1b       	sub	r27, r27
 c1a:	fd 01       	movw	r30, r26
 c1c:	0d c0       	rjmp	.+26     	; 0xc38 <__udivmodsi4_ep>

00000c1e <__udivmodsi4_loop>:
 c1e:	aa 1f       	adc	r26, r26
 c20:	bb 1f       	adc	r27, r27
 c22:	ee 1f       	adc	r30, r30
 c24:	ff 1f       	adc	r31, r31
 c26:	a2 17       	cp	r26, r18
 c28:	b3 07       	cpc	r27, r19
 c2a:	e4 07       	cpc	r30, r20
 c2c:	f5 07       	cpc	r31, r21
 c2e:	20 f0       	brcs	.+8      	; 0xc38 <__udivmodsi4_ep>
 c30:	a2 1b       	sub	r26, r18
 c32:	b3 0b       	sbc	r27, r19
 c34:	e4 0b       	sbc	r30, r20
 c36:	f5 0b       	sbc	r31, r21

00000c38 <__udivmodsi4_ep>:
 c38:	66 1f       	adc	r22, r22
 c3a:	77 1f       	adc	r23, r23
 c3c:	88 1f       	adc	r24, r24
 c3e:	99 1f       	adc	r25, r25
 c40:	1a 94       	dec	r1
 c42:	69 f7       	brne	.-38     	; 0xc1e <__udivmodsi4_loop>
 c44:	60 95       	com	r22
 c46:	70 95       	com	r23
 c48:	80 95       	com	r24
 c4a:	90 95       	com	r25
 c4c:	9b 01       	movw	r18, r22
 c4e:	ac 01       	movw	r20, r24
 c50:	bd 01       	movw	r22, r26
 c52:	cf 01       	movw	r24, r30
 c54:	08 95       	ret

00000c56 <__tablejump2__>:
 c56:	ee 0f       	add	r30, r30
 c58:	ff 1f       	adc	r31, r31

00000c5a <__tablejump__>:
 c5a:	05 90       	lpm	r0, Z+
 c5c:	f4 91       	lpm	r31, Z
 c5e:	e0 2d       	mov	r30, r0
 c60:	09 94       	ijmp

00000c62 <strcat>:
 c62:	fb 01       	movw	r30, r22
 c64:	dc 01       	movw	r26, r24
 c66:	0d 90       	ld	r0, X+
 c68:	00 20       	and	r0, r0
 c6a:	e9 f7       	brne	.-6      	; 0xc66 <strcat+0x4>
 c6c:	11 97       	sbiw	r26, 0x01	; 1
 c6e:	01 90       	ld	r0, Z+
 c70:	0d 92       	st	X+, r0
 c72:	00 20       	and	r0, r0
 c74:	e1 f7       	brne	.-8      	; 0xc6e <strcat+0xc>
 c76:	08 95       	ret

00000c78 <strcmp>:
 c78:	fb 01       	movw	r30, r22
 c7a:	dc 01       	movw	r26, r24
 c7c:	8d 91       	ld	r24, X+
 c7e:	01 90       	ld	r0, Z+
 c80:	80 19       	sub	r24, r0
 c82:	01 10       	cpse	r0, r1
 c84:	d9 f3       	breq	.-10     	; 0xc7c <strcmp+0x4>
 c86:	99 0b       	sbc	r25, r25
 c88:	08 95       	ret

00000c8a <__do_global_dtors>:
 c8a:	10 e0       	ldi	r17, 0x00	; 0
 c8c:	c0 ec       	ldi	r28, 0xC0	; 192
 c8e:	d0 e0       	ldi	r29, 0x00	; 0
 c90:	03 c0       	rjmp	.+6      	; 0xc98 <__do_global_dtors+0xe>
 c92:	fe 01       	movw	r30, r28
 c94:	e2 df       	rcall	.-60     	; 0xc5a <__tablejump__>
 c96:	22 96       	adiw	r28, 0x02	; 2
 c98:	c2 3c       	cpi	r28, 0xC2	; 194
 c9a:	d1 07       	cpc	r29, r17
 c9c:	d1 f7       	brne	.-12     	; 0xc92 <__do_global_dtors+0x8>
 c9e:	f8 94       	cli

00000ca0 <__stop_program>:
 ca0:	ff cf       	rjmp	.-2      	; 0xca0 <__stop_program>
